Vth.btn-col {\u000a    width: 39px;\u000a    text-align: center;\u000a}\u000a\u000apre.scrollable-pre {\u000a    overflow: auto;\u000a    word-wrap: normal;\u000a    white-space: pre;\u000a}\u000a\u000a.modal.modal-lg {\u000a    width: 800px;\u000a    margin-left: -400px;\u000a}\u000a
p0
.